target datalayout = "e-m:e-p270:32:32-p271:32:32-p272:64:64-i64:64-i128:128-f80:128-n8:16:32:64-S128"
target triple = "x86_64-pc-linux-gnu"

%struct.mbedtls_mpi = type { ptr, i16, i16 }
%struct.mbedtls_rsa_context = type { i32, i64, %struct.mbedtls_mpi, %struct.mbedtls_mpi, %struct.mbedtls_mpi, %struct.mbedtls_mpi, %struct.mbedtls_mpi, %struct.mbedtls_mpi, %struct.mbedtls_mpi, %struct.mbedtls_mpi, %struct.mbedtls_mpi, %struct.mbedtls_mpi, %struct.mbedtls_mpi, %struct.mbedtls_mpi, %struct.mbedtls_mpi, i32, i32 }

@.str = private unnamed_addr constant [117 x i8] c"generated/home/dtcxzyw/WorkSpace/Projects/compilers/llvm-opt-benchmark/bench/lief/bench_build/mbed_src/library/rsa.c\00", align 1

; Function Attrs: inlinehint nounwind uwtable
define internal i32 @mbedtls_error_add(i32 noundef %0, i32 noundef %1, ptr noundef %2, i32 noundef %3) #3 {
  %5 = alloca i32, align 4
  %6 = alloca i32, align 4
  %7 = alloca ptr, align 8
  %8 = alloca i32, align 4
  store i32 %0, ptr %5, align 4, !tbaa !12
  store i32 %1, ptr %6, align 4, !tbaa !12
  store ptr %2, ptr %7, align 8, !tbaa !8
  store i32 %3, ptr %8, align 4, !tbaa !12
  %9 = load i32, ptr %5, align 4, !tbaa !12
  %10 = load i32, ptr %6, align 4, !tbaa !12
  %11 = add nsw i32 %9, %10
  ret i32 %11
}

; Function Attrs: nounwind uwtable
define hidden i32 @mbedtls_rsa_export_crt(ptr noundef %0, ptr noundef %1, ptr noundef %2, ptr noundef %3) #0 {
  %5 = alloca i32, align 4
  %6 = alloca ptr, align 8
  %7 = alloca ptr, align 8
  %8 = alloca ptr, align 8
  %9 = alloca ptr, align 8
  %10 = alloca i32, align 4
  %11 = alloca i32, align 4
  %12 = alloca i32, align 4
  store ptr %0, ptr %6, align 8, !tbaa !3
  store ptr %1, ptr %7, align 8, !tbaa !17
  store ptr %2, ptr %8, align 8, !tbaa !17
  store ptr %3, ptr %9, align 8, !tbaa !17
  call void @llvm.lifetime.start.p0(i64 4, ptr %10) #9
  store i32 -110, ptr %10, align 4, !tbaa !12
  call void @llvm.lifetime.start.p0(i64 4, ptr %11) #9
  %13 = load ptr, ptr %6, align 8, !tbaa !3
  %14 = getelementptr inbounds nuw %struct.mbedtls_rsa_context, ptr %13, i32 0, i32 2
  %15 = call i32 @mbedtls_mpi_cmp_int(ptr noundef %14, i64 noundef 0)
  %16 = icmp ne i32 %15, 0
  br i1 %16, label %17, label %37

17:                                               ; preds = %4
  %18 = load ptr, ptr %6, align 8, !tbaa !3
  %19 = getelementptr inbounds nuw %struct.mbedtls_rsa_context, ptr %18, i32 0, i32 5
  %20 = call i32 @mbedtls_mpi_cmp_int(ptr noundef %19, i64 noundef 0)
  %21 = icmp ne i32 %20, 0
  br i1 %21, label %22, label %37

22:                                               ; preds = %17
  %23 = load ptr, ptr %6, align 8, !tbaa !3
  %24 = getelementptr inbounds nuw %struct.mbedtls_rsa_context, ptr %23, i32 0, i32 6
  %25 = call i32 @mbedtls_mpi_cmp_int(ptr noundef %24, i64 noundef 0)
  %26 = icmp ne i32 %25, 0
  br i1 %26, label %27, label %37

27:                                               ; preds = %22
  %28 = load ptr, ptr %6, align 8, !tbaa !3
  %29 = getelementptr inbounds nuw %struct.mbedtls_rsa_context, ptr %28, i32 0, i32 4
  %30 = call i32 @mbedtls_mpi_cmp_int(ptr noundef %29, i64 noundef 0)
  %31 = icmp ne i32 %30, 0
  br i1 %31, label %32, label %37

32:                                               ; preds = %27
  %33 = load ptr, ptr %6, align 8, !tbaa !3
  %34 = getelementptr inbounds nuw %struct.mbedtls_rsa_context, ptr %33, i32 0, i32 3
  %35 = call i32 @mbedtls_mpi_cmp_int(ptr noundef %34, i64 noundef 0)
  %36 = icmp ne i32 %35, 0
  br label %37

37:                                               ; preds = %32, %27, %22, %17, %4
  %38 = phi i1 [ false, %27 ], [ false, %22 ], [ false, %17 ], [ false, %4 ], [ %36, %32 ]
  %39 = zext i1 %38 to i32
  store i32 %39, ptr %11, align 4, !tbaa !12
  %40 = load i32, ptr %11, align 4, !tbaa !12
  %41 = icmp ne i32 %40, 0
  br i1 %41, label %43, label %42

42:                                               ; preds = %37
  store i32 -16512, ptr %5, align 4
  store i32 1, ptr %12, align 4
  br label %74

43:                                               ; preds = %37
  %44 = load ptr, ptr %7, align 8, !tbaa !17
  %45 = icmp ne ptr %44, null
  br i1 %45, label %46, label %52

46:                                               ; preds = %43
  %47 = load ptr, ptr %7, align 8, !tbaa !17
  %48 = load ptr, ptr %6, align 8, !tbaa !3
  %49 = getelementptr inbounds nuw %struct.mbedtls_rsa_context, ptr %48, i32 0, i32 7
  %50 = call i32 @mbedtls_mpi_copy(ptr noundef %47, ptr noundef %49)
  store i32 %50, ptr %10, align 4, !tbaa !12
  %51 = icmp ne i32 %50, 0
  br i1 %51, label %70, label %52

52:                                               ; preds = %46, %43
  %53 = load ptr, ptr %8, align 8, !tbaa !17
  %54 = icmp ne ptr %53, null
  br i1 %54, label %55, label %61

55:                                               ; preds = %52
  %56 = load ptr, ptr %8, align 8, !tbaa !17
  %57 = load ptr, ptr %6, align 8, !tbaa !3
  %58 = getelementptr inbounds nuw %struct.mbedtls_rsa_context, ptr %57, i32 0, i32 8
  %59 = call i32 @mbedtls_mpi_copy(ptr noundef %56, ptr noundef %58)
  store i32 %59, ptr %10, align 4, !tbaa !12
  %60 = icmp ne i32 %59, 0
  br i1 %60, label %70, label %61

61:                                               ; preds = %55, %52
  %62 = load ptr, ptr %9, align 8, !tbaa !17
  %63 = icmp ne ptr %62, null
  br i1 %63, label %64, label %73

64:                                               ; preds = %61
  %65 = load ptr, ptr %9, align 8, !tbaa !17
  %66 = load ptr, ptr %6, align 8, !tbaa !3
  %67 = getelementptr inbounds nuw %struct.mbedtls_rsa_context, ptr %66, i32 0, i32 9
  %68 = call i32 @mbedtls_mpi_copy(ptr noundef %65, ptr noundef %67)
  store i32 %68, ptr %10, align 4, !tbaa !12
  %69 = icmp ne i32 %68, 0
  br i1 %69, label %70, label %73

70:                                               ; preds = %64, %55, %46
  %71 = load i32, ptr %10, align 4, !tbaa !12
  %72 = call i32 @mbedtls_error_add(i32 noundef -16512, i32 noundef %71, ptr noundef @.str, i32 noundef 938)
  store i32 %72, ptr %5, align 4
  store i32 1, ptr %12, align 4
  br label %74

73:                                               ; preds = %64, %61
  store i32 0, ptr %5, align 4
  store i32 1, ptr %12, align 4
  br label %74

74:                                               ; preds = %73, %70, %42
  call void @llvm.lifetime.end.p0(i64 4, ptr %11) #9
  call void @llvm.lifetime.end.p0(i64 4, ptr %10) #9
  %75 = load i32, ptr %5, align 4
  ret i32 %75
}