; Function Attrs: nounwind uwtable
define hidden range(i32 -2147483648, 2147467136) i32 @mbedtls_rsa_export_crt(ptr noundef %0, ptr noundef %1, ptr noundef %2, ptr noundef %3) local_unnamed_addr #0 {
  %5 = getelementptr inbounds nuw i8, ptr %0, i64 16
  %6 = tail call i32 @mbedtls_mpi_cmp_int(ptr noundef nonnull %5, i64 noundef 0) #14
  %.not = icmp eq i32 %6, 0
  br i1 %.not, label %.critedge, label %7

7:                                                ; preds = %4
  %8 = getelementptr inbounds nuw i8, ptr %0, i64 64
  %9 = tail call i32 @mbedtls_mpi_cmp_int(ptr noundef nonnull %8, i64 noundef 0) #14
  %.not23 = icmp eq i32 %9, 0
  br i1 %.not23, label %.critedge, label %10

10:                                               ; preds = %7
  %11 = getelementptr inbounds nuw i8, ptr %0, i64 80
  %12 = tail call i32 @mbedtls_mpi_cmp_int(ptr noundef nonnull %11, i64 noundef 0) #14
  %.not24 = icmp eq i32 %12, 0
  br i1 %.not24, label %.critedge, label %13

13:                                               ; preds = %10
  %14 = getelementptr inbounds nuw i8, ptr %0, i64 48
  %15 = tail call i32 @mbedtls_mpi_cmp_int(ptr noundef nonnull %14, i64 noundef 0) #14
  %.not25 = icmp eq i32 %15, 0
  br i1 %.not25, label %.critedge, label %16

16:                                               ; preds = %13
  %17 = getelementptr inbounds nuw i8, ptr %0, i64 32
  %18 = tail call i32 @mbedtls_mpi_cmp_int(ptr noundef nonnull %17, i64 noundef 0) #14
  %.not32 = icmp eq i32 %18, 0
  br i1 %.not32, label %.critedge, label %19

19:                                               ; preds = %16
  %.not26 = icmp eq ptr %1, null
  br i1 %.not26, label %23, label %20

20:                                               ; preds = %19
  %21 = getelementptr inbounds nuw i8, ptr %0, i64 96
  %22 = tail call i32 @mbedtls_mpi_copy(ptr noundef nonnull %1, ptr noundef nonnull %21) #14
  %.not27 = icmp eq i32 %22, 0
  br i1 %.not27, label %23, label %31

23:                                               ; preds = %20, %19
  %.not28 = icmp eq ptr %2, null
  br i1 %.not28, label %27, label %24

24:                                               ; preds = %23
  %25 = getelementptr inbounds nuw i8, ptr %0, i64 112
  %26 = tail call i32 @mbedtls_mpi_copy(ptr noundef nonnull %2, ptr noundef nonnull %25) #14
  %.not29 = icmp eq i32 %26, 0
  br i1 %.not29, label %27, label %31

27:                                               ; preds = %24, %23
  %.not30 = icmp eq ptr %3, null
  br i1 %.not30, label %.critedge, label %28

28:                                               ; preds = %27
  %29 = getelementptr inbounds nuw i8, ptr %0, i64 128
  %30 = tail call i32 @mbedtls_mpi_copy(ptr noundef nonnull %3, ptr noundef nonnull %29) #14
  %.not31 = icmp eq i32 %30, 0
  br i1 %.not31, label %.critedge, label %31

31:                                               ; preds = %28, %24, %20
  %.016 = phi i32 [ %22, %20 ], [ %26, %24 ], [ %30, %28 ]
  %32 = add nsw i32 %.016, -16512
  br label %.critedge

.critedge:                                        ; preds = %13, %10, %7, %4, %27, %28, %16, %31
  %.0 = phi i32 [ %32, %31 ], [ -16512, %16 ], [ 0, %28 ], [ 0, %27 ], [ -16512, %4 ], [ -16512, %7 ], [ -16512, %10 ], [ -16512, %13 ]
  ret i32 %.0
}